; Function Attrs: mustprogress nounwind uwtable
define hidden void @_ZN5ciEnv28record_method_not_compilableEPKcb(ptr noundef nonnull align 8 dereferenceable(1265) %0, ptr noundef %1, i1 noundef zeroext %2) local_unnamed_addr #0 align 2 {
  %4 = select i1 %2, i32 2, i32 1
  %5 = getelementptr inbounds i8, ptr %0, i64 100
  %6 = load i32, ptr %5, align 4
  %7 = icmp sgt i32 %4, %6
  br i1 %7, label %8, label %_ZN5ciEnv14record_failureEPKc.exit

8:                                                ; preds = %3
  %9 = getelementptr inbounds i8, ptr %0, i64 120
  %10 = load ptr, ptr %9, align 8
  %.not = icmp eq ptr %10, null
  br i1 %.not, label %22, label %11

11:                                               ; preds = %8
  br i1 %2, label %12, label %13

12:                                               ; preds = %11
  tail call void (ptr, ptr, ...) @_ZN9xmlStream4elemEPKcz(ptr noundef nonnull align 8 dereferenceable(152) %10, ptr noundef nonnull @.str.17) #18
  br label %22

13:                                               ; preds = %11
  %14 = tail call align 8 ptr @llvm.threadlocal.address.p0(ptr align 8 @_ZN6Thread12_thr_currentE)
  %15 = load ptr, ptr %14, align 8
  %16 = getelementptr inbounds i8, ptr %15, i64 1808
  %17 = load ptr, ptr %16, align 8
  %18 = getelementptr inbounds i8, ptr %17, i64 112
  %19 = load ptr, ptr %18, align 8
  %20 = getelementptr inbounds i8, ptr %19, i64 80
  %21 = load i32, ptr %20, align 8
  tail call void (ptr, ptr, ...) @_ZN9xmlStream4elemEPKcz(ptr noundef nonnull align 8 dereferenceable(152) %10, ptr noundef nonnull @.str.18, i32 noundef %21) #18
  br label %22

22:                                               ; preds = %12, %13, %8
  store i32 %4, ptr %5, align 4
  %23 = getelementptr inbounds i8, ptr %0, i64 88
  tail call void @_ZN17CHeapStringHolder5clearEv(ptr noundef nonnull align 8 dereferenceable(8) %23) #18
  %24 = load ptr, ptr %23, align 8
  %25 = icmp eq ptr %24, null
  br i1 %25, label %26, label %_ZN5ciEnv14record_failureEPKc.exit

26:                                               ; preds = %22
  tail call void @_ZN17CHeapStringHolder3setEPKc(ptr noundef nonnull align 8 dereferenceable(8) %23, ptr noundef %1) #18
  br label %_ZN5ciEnv14record_failureEPKc.exit

_ZN5ciEnv14record_failureEPKc.exit:               ; preds = %26, %22, %3
  ret void
}